target datalayout = "e-m:e-p270:32:32-p271:32:32-p272:64:64-i64:64-i128:128-f80:128-n8:16:32:64-S128"
target triple = "x86_64-pc-linux-gnu"

%struct.AVFilterContext = type { ptr, ptr, ptr, ptr, ptr, i32, ptr, ptr, i32, ptr, ptr, i32, i32, ptr, ptr, ptr, ptr, i32, ptr, i32, i32 }
%struct.ColorCorrectContext = type { ptr, float, float, float, float, float, i32, i32, float, float, i32, i32, [4 x i32], [4 x i32], ptr, ptr, ptr, ptr, ptr }
%struct.AVChannelLayout = type { i32, i32, %union.anon.1, ptr }
%union.anon.1 = type { i64 }
%struct.AVRational = type { i32, i32 }
%struct.AVFrame = type { [8 x ptr], [8 x i32], ptr, i32, i32, i32, i32, i32, %struct.AVRational, i64, i64, %struct.AVRational, i32, ptr, i32, i32, [8 x ptr], ptr, i32, ptr, i32, i32, i32, i32, i32, i32, i32, i64, ptr, i32, ptr, ptr, i64, i64, i64, i64, ptr, %struct.AVChannelLayout, i64 }

; Function Attrs: nounwind uwtable
define internal i32 @average_slice8(ptr noundef %0, ptr noundef %1, i32 noundef %2, i32 noundef %3) #2 {
  %5 = alloca ptr, align 8
  %6 = alloca ptr, align 8
  %7 = alloca i32, align 4
  %8 = alloca i32, align 4
  %9 = alloca ptr, align 8
  %10 = alloca ptr, align 8
  %11 = alloca float, align 4
  %12 = alloca i32, align 4
  %13 = alloca i32, align 4
  %14 = alloca i32, align 4
  %15 = alloca i32, align 4
  %16 = alloca i64, align 8
  %17 = alloca i64, align 8
  %18 = alloca ptr, align 8
  %19 = alloca ptr, align 8
  %20 = alloca i32, align 4
  %21 = alloca i32, align 4
  %22 = alloca i32, align 4
  %23 = alloca i32, align 4
  %24 = alloca i32, align 4
  store ptr %0, ptr %5, align 8, !tbaa !4
  store ptr %1, ptr %6, align 8, !tbaa !71
  store i32 %2, ptr %7, align 4, !tbaa !41
  store i32 %3, ptr %8, align 4, !tbaa !41
  call void @llvm.lifetime.start.p0(i64 8, ptr %9) #9
  %25 = load ptr, ptr %5, align 8, !tbaa !4
  %26 = getelementptr inbounds nuw %struct.AVFilterContext, ptr %25, i32 0, i32 9
  %27 = load ptr, ptr %26, align 8, !tbaa !9
  store ptr %27, ptr %9, align 8, !tbaa !22
  call void @llvm.lifetime.start.p0(i64 8, ptr %10) #9
  %28 = load ptr, ptr %6, align 8, !tbaa !71
  store ptr %28, ptr %10, align 8, !tbaa !26
  call void @llvm.lifetime.start.p0(i64 4, ptr %11) #9
  %29 = load ptr, ptr %9, align 8, !tbaa !22
  %30 = getelementptr inbounds nuw %struct.ColorCorrectContext, ptr %29, i32 0, i32 9
  %31 = load float, ptr %30, align 8, !tbaa !60
  store float %31, ptr %11, align 4, !tbaa !42
  call void @llvm.lifetime.start.p0(i64 4, ptr %12) #9
  %32 = load ptr, ptr %9, align 8, !tbaa !22
  %33 = getelementptr inbounds nuw %struct.ColorCorrectContext, ptr %32, i32 0, i32 13
  %34 = getelementptr inbounds [4 x i32], ptr %33, i64 0, i64 1
  %35 = load i32, ptr %34, align 4, !tbaa !41
  store i32 %35, ptr %12, align 4, !tbaa !41
  call void @llvm.lifetime.start.p0(i64 4, ptr %13) #9
  %36 = load ptr, ptr %9, align 8, !tbaa !22
  %37 = getelementptr inbounds nuw %struct.ColorCorrectContext, ptr %36, i32 0, i32 12
  %38 = getelementptr inbounds [4 x i32], ptr %37, i64 0, i64 1
  %39 = load i32, ptr %38, align 4, !tbaa !41
  store i32 %39, ptr %13, align 4, !tbaa !41
  call void @llvm.lifetime.start.p0(i64 4, ptr %14) #9
  %40 = load i32, ptr %13, align 4, !tbaa !41
  %41 = load i32, ptr %7, align 4, !tbaa !41
  %42 = mul nsw i32 %40, %41
  %43 = load i32, ptr %8, align 4, !tbaa !41
  %44 = sdiv i32 %42, %43
  store i32 %44, ptr %14, align 4, !tbaa !41
  call void @llvm.lifetime.start.p0(i64 4, ptr %15) #9
  %45 = load i32, ptr %13, align 4, !tbaa !41
  %46 = load i32, ptr %7, align 4, !tbaa !41
  %47 = add nsw i32 %46, 1
  %48 = mul nsw i32 %45, %47
  %49 = load i32, ptr %8, align 4, !tbaa !41
  %50 = sdiv i32 %48, %49
  store i32 %50, ptr %15, align 4, !tbaa !41
  call void @llvm.lifetime.start.p0(i64 8, ptr %16) #9
  %51 = load ptr, ptr %10, align 8, !tbaa !26
  %52 = getelementptr inbounds nuw %struct.AVFrame, ptr %51, i32 0, i32 1
  %53 = getelementptr inbounds [8 x i32], ptr %52, i64 0, i64 1
  %54 = load i32, ptr %53, align 4, !tbaa !41
  %55 = sext i32 %54 to i64
  store i64 %55, ptr %16, align 8, !tbaa !72
  call void @llvm.lifetime.start.p0(i64 8, ptr %17) #9
  %56 = load ptr, ptr %10, align 8, !tbaa !26
  %57 = getelementptr inbounds nuw %struct.AVFrame, ptr %56, i32 0, i32 1
  %58 = getelementptr inbounds [8 x i32], ptr %57, i64 0, i64 2
  %59 = load i32, ptr %58, align 8, !tbaa !41
  %60 = sext i32 %59 to i64
  store i64 %60, ptr %17, align 8, !tbaa !72
  call void @llvm.lifetime.start.p0(i64 8, ptr %18) #9
  %61 = load ptr, ptr %10, align 8, !tbaa !26
  %62 = getelementptr inbounds nuw %struct.AVFrame, ptr %61, i32 0, i32 0
  %63 = getelementptr inbounds [8 x ptr], ptr %62, i64 0, i64 1
  %64 = load ptr, ptr %63, align 8, !tbaa !73
  %65 = load i32, ptr %14, align 4, !tbaa !41
  %66 = sext i32 %65 to i64
  %67 = load i64, ptr %16, align 8, !tbaa !72
  %68 = mul nsw i64 %66, %67
  %69 = getelementptr inbounds i8, ptr %64, i64 %68
  store ptr %69, ptr %18, align 8, !tbaa !73
  call void @llvm.lifetime.start.p0(i64 8, ptr %19) #9
  %70 = load ptr, ptr %10, align 8, !tbaa !26
  %71 = getelementptr inbounds nuw %struct.AVFrame, ptr %70, i32 0, i32 0
  %72 = getelementptr inbounds [8 x ptr], ptr %71, i64 0, i64 2
  %73 = load ptr, ptr %72, align 8, !tbaa !73
  %74 = load i32, ptr %14, align 4, !tbaa !41
  %75 = sext i32 %74 to i64
  %76 = load i64, ptr %17, align 8, !tbaa !72
  %77 = mul nsw i64 %75, %76
  %78 = getelementptr inbounds i8, ptr %73, i64 %77
  store ptr %78, ptr %19, align 8, !tbaa !73
  call void @llvm.lifetime.start.p0(i64 4, ptr %20) #9
  store i32 0, ptr %20, align 4, !tbaa !41
  call void @llvm.lifetime.start.p0(i64 4, ptr %21) #9
  store i32 0, ptr %21, align 4, !tbaa !41
  call void @llvm.lifetime.start.p0(i64 4, ptr %22) #9
  %79 = load i32, ptr %14, align 4, !tbaa !41
  store i32 %79, ptr %22, align 4, !tbaa !41
  br label %80

80:                                               ; preds = %118, %4
  %81 = load i32, ptr %22, align 4, !tbaa !41
  %82 = load i32, ptr %15, align 4, !tbaa !41
  %83 = icmp slt i32 %81, %82
  br i1 %83, label %85, label %84

84:                                               ; preds = %80
  store i32 2, ptr %23, align 4
  call void @llvm.lifetime.end.p0(i64 4, ptr %22) #9
  br label %121

85:                                               ; preds = %80
  call void @llvm.lifetime.start.p0(i64 4, ptr %24) #9
  store i32 0, ptr %24, align 4, !tbaa !41
  br label %86

86:                                               ; preds = %108, %85
  %87 = load i32, ptr %24, align 4, !tbaa !41
  %88 = load i32, ptr %12, align 4, !tbaa !41
  %89 = icmp slt i32 %87, %88
  br i1 %89, label %91, label %90

90:                                               ; preds = %86
  store i32 5, ptr %23, align 4
  call void @llvm.lifetime.end.p0(i64 4, ptr %24) #9
  br label %111

91:                                               ; preds = %86
  %92 = load ptr, ptr %18, align 8, !tbaa !73
  %93 = load i32, ptr %24, align 4, !tbaa !41
  %94 = sext i32 %93 to i64
  %95 = getelementptr inbounds i8, ptr %92, i64 %94
  %96 = load i8, ptr %95, align 1, !tbaa !75
  %97 = zext i8 %96 to i32
  %98 = load i32, ptr %20, align 4, !tbaa !41
  %99 = add nsw i32 %98, %97
  store i32 %99, ptr %20, align 4, !tbaa !41
  %100 = load ptr, ptr %19, align 8, !tbaa !73
  %101 = load i32, ptr %24, align 4, !tbaa !41
  %102 = sext i32 %101 to i64
  %103 = getelementptr inbounds i8, ptr %100, i64 %102
  %104 = load i8, ptr %103, align 1, !tbaa !75
  %105 = zext i8 %104 to i32
  %106 = load i32, ptr %21, align 4, !tbaa !41
  %107 = add nsw i32 %106, %105
  store i32 %107, ptr %21, align 4, !tbaa !41
  br label %108

108:                                              ; preds = %91
  %109 = load i32, ptr %24, align 4, !tbaa !41
  %110 = add nsw i32 %109, 1
  store i32 %110, ptr %24, align 4, !tbaa !41
  br label %86, !llvm.loop !84

111:                                              ; preds = %90
  %112 = load i64, ptr %16, align 8, !tbaa !72
  %113 = load ptr, ptr %18, align 8, !tbaa !73
  %114 = getelementptr inbounds i8, ptr %113, i64 %112
  store ptr %114, ptr %18, align 8, !tbaa !73
  %115 = load i64, ptr %17, align 8, !tbaa !72
  %116 = load ptr, ptr %19, align 8, !tbaa !73
  %117 = getelementptr inbounds i8, ptr %116, i64 %115
  store ptr %117, ptr %19, align 8, !tbaa !73
  br label %118

118:                                              ; preds = %111
  %119 = load i32, ptr %22, align 4, !tbaa !41
  %120 = add nsw i32 %119, 1
  store i32 %120, ptr %22, align 4, !tbaa !41
  br label %80, !llvm.loop !85

121:                                              ; preds = %84
  %122 = load float, ptr %11, align 4, !tbaa !42
  %123 = load i32, ptr %20, align 4, !tbaa !41
  %124 = sitofp i32 %123 to float
  %125 = fmul nsz float %122, %124
  %126 = load i32, ptr %15, align 4, !tbaa !41
  %127 = load i32, ptr %14, align 4, !tbaa !41
  %128 = sub nsw i32 %126, %127
  %129 = load i32, ptr %12, align 4, !tbaa !41
  %130 = mul nsw i32 %128, %129
  %131 = sitofp i32 %130 to float
  %132 = fdiv nsz float %125, %131
  %133 = fsub nsz float %132, 5.000000e-01
  %134 = load ptr, ptr %9, align 8, !tbaa !22
  %135 = getelementptr inbounds nuw %struct.ColorCorrectContext, ptr %134, i32 0, i32 16
  %136 = load ptr, ptr %135, align 8, !tbaa !44
  %137 = load i32, ptr %7, align 4, !tbaa !41
  %138 = sext i32 %137 to i64
  %139 = getelementptr inbounds [4 x float], ptr %136, i64 %138
  %140 = getelementptr inbounds [4 x float], ptr %139, i64 0, i64 2
  store float %133, ptr %140, align 4, !tbaa !42
  %141 = load ptr, ptr %9, align 8, !tbaa !22
  %142 = getelementptr inbounds nuw %struct.ColorCorrectContext, ptr %141, i32 0, i32 16
  %143 = load ptr, ptr %142, align 8, !tbaa !44
  %144 = load i32, ptr %7, align 4, !tbaa !41
  %145 = sext i32 %144 to i64
  %146 = getelementptr inbounds [4 x float], ptr %143, i64 %145
  %147 = getelementptr inbounds [4 x float], ptr %146, i64 0, i64 0
  store float %133, ptr %147, align 4, !tbaa !42
  %148 = load float, ptr %11, align 4, !tbaa !42
  %149 = load i32, ptr %21, align 4, !tbaa !41
  %150 = sitofp i32 %149 to float
  %151 = fmul nsz float %148, %150
  %152 = load i32, ptr %15, align 4, !tbaa !41
  %153 = load i32, ptr %14, align 4, !tbaa !41
  %154 = sub nsw i32 %152, %153
  %155 = load i32, ptr %12, align 4, !tbaa !41
  %156 = mul nsw i32 %154, %155
  %157 = sitofp i32 %156 to float
  %158 = fdiv nsz float %151, %157
  %159 = fsub nsz float %158, 5.000000e-01
  %160 = load ptr, ptr %9, align 8, !tbaa !22
  %161 = getelementptr inbounds nuw %struct.ColorCorrectContext, ptr %160, i32 0, i32 16
  %162 = load ptr, ptr %161, align 8, !tbaa !44
  %163 = load i32, ptr %7, align 4, !tbaa !41
  %164 = sext i32 %163 to i64
  %165 = getelementptr inbounds [4 x float], ptr %162, i64 %164
  %166 = getelementptr inbounds [4 x float], ptr %165, i64 0, i64 3
  store float %159, ptr %166, align 4, !tbaa !42
  %167 = load ptr, ptr %9, align 8, !tbaa !22
  %168 = getelementptr inbounds nuw %struct.ColorCorrectContext, ptr %167, i32 0, i32 16
  %169 = load ptr, ptr %168, align 8, !tbaa !44
  %170 = load i32, ptr %7, align 4, !tbaa !41
  %171 = sext i32 %170 to i64
  %172 = getelementptr inbounds [4 x float], ptr %169, i64 %171
  %173 = getelementptr inbounds [4 x float], ptr %172, i64 0, i64 1
  store float %159, ptr %173, align 4, !tbaa !42
  store i32 1, ptr %23, align 4
  call void @llvm.lifetime.end.p0(i64 4, ptr %21) #9
  call void @llvm.lifetime.end.p0(i64 4, ptr %20) #9
  call void @llvm.lifetime.end.p0(i64 8, ptr %19) #9
  call void @llvm.lifetime.end.p0(i64 8, ptr %18) #9
  call void @llvm.lifetime.end.p0(i64 8, ptr %17) #9
  call void @llvm.lifetime.end.p0(i64 8, ptr %16) #9
  call void @llvm.lifetime.end.p0(i64 4, ptr %15) #9
  call void @llvm.lifetime.end.p0(i64 4, ptr %14) #9
  call void @llvm.lifetime.end.p0(i64 4, ptr %13) #9
  call void @llvm.lifetime.end.p0(i64 4, ptr %12) #9
  call void @llvm.lifetime.end.p0(i64 4, ptr %11) #9
  call void @llvm.lifetime.end.p0(i64 8, ptr %10) #9
  call void @llvm.lifetime.end.p0(i64 8, ptr %9) #9
  ret i32 0
}