; Function Attrs: nofree norecurse nosync nounwind memory(readwrite, inaccessiblemem: none) uwtable
define internal noundef i32 @average_slice8(ptr noundef readonly captures(none) %0, ptr noundef readonly captures(none) %1, i32 noundef %2, i32 noundef %3) #4 {
  %5 = getelementptr inbounds nuw i8, ptr %0, i64 72
  %6 = load ptr, ptr %5, align 8, !tbaa !4
  %7 = getelementptr inbounds nuw i8, ptr %6, i64 40
  %8 = load float, ptr %7, align 8, !tbaa !53
  %9 = getelementptr inbounds nuw i8, ptr %6, i64 72
  %10 = load i32, ptr %9, align 4, !tbaa !35
  %11 = getelementptr inbounds nuw i8, ptr %6, i64 56
  %12 = load i32, ptr %11, align 4, !tbaa !35
  %13 = mul nsw i32 %12, %2
  %14 = sdiv i32 %13, %3
  %15 = add nsw i32 %2, 1
  %16 = mul nsw i32 %12, %15
  %17 = sdiv i32 %16, %3
  %18 = getelementptr inbounds nuw i8, ptr %1, i64 68
  %19 = load i32, ptr %18, align 4, !tbaa !35
  %20 = sext i32 %19 to i64
  %21 = getelementptr inbounds nuw i8, ptr %1, i64 72
  %22 = load i32, ptr %21, align 8, !tbaa !35
  %23 = sext i32 %22 to i64
  %24 = icmp slt i32 %14, %17
  %25 = icmp sgt i32 %10, 0
  %or.cond = select i1 %24, i1 %25, i1 false
  br i1 %or.cond, label %.preheader.us.preheader, label %._crit_edge69

.preheader.us.preheader:                          ; preds = %4
  %26 = getelementptr inbounds nuw i8, ptr %1, i64 8
  %27 = load ptr, ptr %26, align 8, !tbaa !65
  %28 = sext i32 %14 to i64
  %29 = mul nsw i64 %20, %28
  %30 = getelementptr inbounds i8, ptr %27, i64 %29
  %31 = getelementptr inbounds nuw i8, ptr %1, i64 16
  %32 = load ptr, ptr %31, align 8, !tbaa !65
  %33 = mul nsw i64 %23, %28
  %34 = getelementptr inbounds i8, ptr %32, i64 %33
  %wide.trip.count = zext nneg i32 %10 to i64
  br label %.preheader.us

.preheader.us:                                    ; preds = %.preheader.us.preheader, %._crit_edge.us
  %.05368.us = phi i32 [ %46, %._crit_edge.us ], [ %14, %.preheader.us.preheader ]
  %.05467.us = phi i32 [ %43, %._crit_edge.us ], [ 0, %.preheader.us.preheader ]
  %.05566.us = phi i32 [ %39, %._crit_edge.us ], [ 0, %.preheader.us.preheader ]
  %.05765.us = phi ptr [ %45, %._crit_edge.us ], [ %34, %.preheader.us.preheader ]
  %.05864.us = phi ptr [ %44, %._crit_edge.us ], [ %30, %.preheader.us.preheader ]
  br label %35

35:                                               ; preds = %.preheader.us, %35
  %indvars.iv = phi i64 [ 0, %.preheader.us ], [ %indvars.iv.next, %35 ]
  %.161.us = phi i32 [ %.05467.us, %.preheader.us ], [ %43, %35 ]
  %.15660.us = phi i32 [ %.05566.us, %.preheader.us ], [ %39, %35 ]
  %36 = getelementptr inbounds nuw i8, ptr %.05864.us, i64 %indvars.iv
  %37 = load i8, ptr %36, align 1, !tbaa !66
  %38 = zext i8 %37 to i32
  %39 = add nsw i32 %.15660.us, %38
  %40 = getelementptr inbounds nuw i8, ptr %.05765.us, i64 %indvars.iv
  %41 = load i8, ptr %40, align 1, !tbaa !66
  %42 = zext i8 %41 to i32
  %43 = add nsw i32 %.161.us, %42
  %indvars.iv.next = add nuw nsw i64 %indvars.iv, 1
  %exitcond.not = icmp eq i64 %indvars.iv.next, %wide.trip.count
  br i1 %exitcond.not, label %._crit_edge.us, label %35, !llvm.loop !73

._crit_edge.us:                                   ; preds = %35
  %44 = getelementptr inbounds i8, ptr %.05864.us, i64 %20
  %45 = getelementptr inbounds i8, ptr %.05765.us, i64 %23
  %46 = add nsw i32 %.05368.us, 1
  %exitcond76.not = icmp eq i32 %46, %17
  br i1 %exitcond76.not, label %._crit_edge69.loopexit, label %.preheader.us, !llvm.loop !74

._crit_edge69.loopexit:                           ; preds = %._crit_edge.us
  %47 = sitofp i32 %39 to float
  %48 = sitofp i32 %43 to float
  br label %._crit_edge69

._crit_edge69:                                    ; preds = %._crit_edge69.loopexit, %4
  %.055.lcssa = phi float [ 0.000000e+00, %4 ], [ %47, %._crit_edge69.loopexit ]
  %.054.lcssa = phi float [ 0.000000e+00, %4 ], [ %48, %._crit_edge69.loopexit ]
  %49 = fmul nsz float %8, %.055.lcssa
  %50 = sub nsw i32 %17, %14
  %51 = mul nsw i32 %50, %10
  %52 = sitofp i32 %51 to float
  %53 = fdiv nsz float %49, %52
  %54 = fadd nsz float %53, -5.000000e-01
  %55 = getelementptr inbounds nuw i8, ptr %6, i64 104
  %56 = load ptr, ptr %55, align 8, !tbaa !36
  %57 = sext i32 %2 to i64
  %58 = getelementptr inbounds [4 x float], ptr %56, i64 %57, i64 2
  store float %54, ptr %58, align 4, !tbaa !41
  %59 = getelementptr inbounds [4 x float], ptr %56, i64 %57
  store float %54, ptr %59, align 4, !tbaa !41
  %60 = fmul nsz float %8, %.054.lcssa
  %61 = fdiv nsz float %60, %52
  %62 = fadd nsz float %61, -5.000000e-01
  %63 = getelementptr inbounds [4 x float], ptr %56, i64 %57, i64 3
  store float %62, ptr %63, align 4, !tbaa !41
  %64 = getelementptr inbounds [4 x float], ptr %56, i64 %57, i64 1
  store float %62, ptr %64, align 4, !tbaa !41
  ret i32 0
}